target datalayout = "e-m:e-p270:32:32-p271:32:32-p272:64:64-i64:64-i128:128-f80:128-n8:16:32:64-S128"
target triple = "x86_64-unknown-linux-gnu"

%"class.rocksdb::TraceRecord" = type { ptr, i64 }
%"class.rocksdb::QueryTraceRecord" = type { %"class.rocksdb::TraceRecord" }
%"class.rocksdb::PinnableSlice" = type <{ %"class.rocksdb::Slice", %"class.rocksdb::Cleanable", %"class.std::__cxx11::basic_string", ptr, i8, [7 x i8] }>
%"class.rocksdb::Slice" = type { ptr, i64 }
%"class.rocksdb::Cleanable" = type { %"struct.rocksdb::Cleanable::Cleanup" }
%"struct.rocksdb::Cleanable::Cleanup" = type { ptr, ptr, ptr, ptr }
%"class.std::__cxx11::basic_string" = type { %"struct.std::__cxx11::basic_string<char>::_Alloc_hider", i64, %union.anon }
%"struct.std::__cxx11::basic_string<char>::_Alloc_hider" = type { ptr }
%union.anon = type { i64, [8 x i8] }
%"class.rocksdb::GetQueryTraceRecord" = type { %"class.rocksdb::QueryTraceRecord", i32, [4 x i8], %"class.rocksdb::PinnableSlice" }

; Function Attrs: mustprogress nounwind uwtable
define { ptr, i64 } @_ZNK7rocksdb19GetQueryTraceRecord6GetKeyEv(ptr noundef nonnull align 8 dereferenceable(120) %this) unnamed_addr #0 align 2 {
entry:
  %retval = alloca %"class.rocksdb::Slice", align 8
  %this.addr = alloca ptr, align 8
  store ptr %this, ptr %this.addr, align 8
  %this1 = load ptr, ptr %this.addr, align 8
  %key_ = getelementptr inbounds %"class.rocksdb::GetQueryTraceRecord", ptr %this1, i32 0, i32 3
  call void @llvm.memcpy.p0.p0.i64(ptr align 8 %retval, ptr align 8 %key_, i64 16, i1 false)
  %0 = load { ptr, i64 }, ptr %retval, align 8
  ret { ptr, i64 } %0
}